; Function Attrs: null_pointer_is_valid sspstrong uwtable
define internal i32 @dissect_mms_ObjectClass(i1 noundef zeroext %0, ptr noundef %1, i32 noundef %2, ptr noundef %3, ptr noundef %4, i32 noundef %5) #0 {
  %7 = alloca i32, align 4
  call void @llvm.lifetime.start.p0(i64 4, ptr nonnull %7) #8
  %8 = call i32 @dissect_ber_integer(i1 noundef zeroext %0, ptr noundef %3, ptr noundef %4, ptr noundef %1, i32 noundef %2, i32 noundef %5, ptr noundef nonnull %7)
  %9 = getelementptr inbounds nuw i8, ptr %3, i64 48
  %10 = load ptr, ptr %9, align 8
  %.not = icmp eq ptr %10, null
  br i1 %.not, label %14, label %11

11:                                               ; preds = %6
  %12 = load i32, ptr %7, align 4
  %13 = getelementptr inbounds nuw i8, ptr %10, i64 36
  store i32 %12, ptr %13, align 4
  br label %14

14:                                               ; preds = %11, %6
  call void @llvm.lifetime.end.p0(i64 4, ptr nonnull %7) #8
  ret i32 %8
}